; Function Attrs: mustprogress nounwind uwtable
define dso_local void @_ZNK4node4Blob17CloneForMessagingEv(ptr noalias nocapture writeonly sret(%"class.std::unique_ptr.404") align 8 %agg.result, ptr noundef nonnull align 8 dereferenceable(48) %this) unnamed_addr #3 align 2 {
_ZNSt10unique_ptrIN4node4Blob16BlobTransferDataESt14default_deleteIS2_EED2Ev.exit:
  %ref.tmp = alloca %"class.std::unique_ptr.412", align 8
  %data_queue_ = getelementptr inbounds i8, ptr %this, i64 32
  call void @_ZSt11make_uniqueIN4node4Blob16BlobTransferDataEJRKSt10shared_ptrINS0_9DataQueueEEEENSt8__detail9_MakeUniqIT_E15__single_objectEDpOT0_(ptr nonnull sret(%"class.std::unique_ptr.412") align 8 %ref.tmp, ptr noundef nonnull align 8 dereferenceable(16) %data_queue_)
  %0 = load ptr, ptr %ref.tmp, align 8
  store ptr %0, ptr %agg.result, align 8
  ret void
}